Certificate:
    Data:
        Version: 3 (0x2)
        Serial Number: 1 (0x1)
    Signature Algorithm: sha1WithRSAEncryption
        Issuer: DC=local, DC=pichuang, O=Homelab Inc, OU=Homelab Root CA, CN=Homelab Root CA
        Validity
            Not Before: Sep 16 16:18:58 2018 GMT
            Not After : Sep 15 16:18:58 2028 GMT
        Subject: DC=local, DC=pichuang, O=Homelab Inc, OU=Homelab Root CA, CN=Homelab Root CA
        Subject Public Key Info:
            Public Key Algorithm: rsaEncryption
                Public-Key: (2048 bit)
                Modulus:
                    00:c9:cd:33:fc:97:d2:51:65:63:fa:b7:78:e1:64:
                    62:3f:82:85:7e:15:3a:6b:c3:3f:09:9c:86:0f:8b:
                    d2:1a:dc:d0:f8:5e:6a:76:ed:5c:ab:f4:67:7c:1d:
                    fa:e4:0d:d6:25:04:04:df:7c:2e:24:b4:36:f6:61:
                    80:f4:e0:e3:ed:78:55:84:63:24:c2:bc:17:6d:9e:
                    35:01:66:d6:5a:45:0c:5e:be:20:04:0e:d4:80:8a:
                    77:dc:83:d9:d9:8d:3b:9e:f0:f7:9e:83:d9:b1:a2:
                    4a:f3:17:b2:d2:b1:df:5c:bf:75:7a:84:f6:c8:a3:
                    25:ff:52:4d:56:b2:01:08:9b:ea:a6:8f:27:6a:2e:
                    12:5d:51:df:f3:b8:f5:a2:ce:dd:12:9a:36:e8:82:
                    c2:54:f5:ed:ec:c7:34:b8:b6:52:5e:b3:bc:66:99:
                    c1:07:06:5e:48:12:95:01:ec:64:61:6f:16:51:25:
                    7b:68:03:46:44:10:ad:62:63:06:d8:a7:d9:fd:a1:
                    9b:4e:98:16:e1:dc:8b:a1:8d:ac:18:af:2d:b3:44:
                    b9:42:bf:ba:20:43:14:0d:69:37:ea:4a:df:95:5a:
                    83:5e:26:a7:d4:38:ed:f9:0a:3e:b6:bd:b6:6e:27:
                    78:3d:c7:48:f6:fc:f9:33:a0:f8:69:3f:30:8a:a0:
                    25:01
                Exponent: 65537 (0x10001)
        X509v3 extensions:
            X509v3 Key Usage: critical
                Certificate Sign, CRL Sign
            X509v3 Basic Constraints: critical
                CA:TRUE
            X509v3 Subject Key Identifier: 
                A3:80:82:5D:22:09:99:A3:1D:A9:68:73:F6:AD:DC:BE:59:AE:74:B4
            X509v3 Authority Key Identifier: 
                keyid:A3:80:82:5D:22:09:99:A3:1D:A9:68:73:F6:AD:DC:BE:59:AE:74:B4

    Signature Algorithm: sha1WithRSAEncryption
         bb:03:d4:5a:3b:ac:a2:ba:8b:27:1b:08:eb:78:83:29:04:9b:
         99:a4:c3:fe:41:8d:18:28:a5:af:c1:95:24:f9:24:a0:25:cf:
         5f:53:0e:99:b8:52:95:3e:95:1b:9e:a5:1c:5a:6c:52:66:a4:
         3d:4e:9e:33:30:2c:19:2d:13:80:a8:3b:71:69:cd:51:1b:d1:
         57:20:39:b2:7e:a6:c4:cd:c1:e0:4e:65:93:23:87:e7:92:a3:
         f3:69:e0:43:bb:2f:01:1a:23:38:9b:55:61:c8:94:31:45:22:
         fc:a8:7c:70:d7:26:32:e6:cd:e1:50:38:c5:6e:06:a8:cf:a0:
         eb:5b:6c:2e:c6:b6:8c:d3:8b:3f:95:17:b3:a3:52:8c:0a:3e:
         9c:96:5b:63:eb:40:13:a2:0f:f7:ae:70:07:15:3d:5a:2e:f5:
         a2:f2:53:0d:ee:01:c4:76:82:78:e7:2b:f1:fc:b8:38:47:9f:
         9b:fc:06:8d:f1:7d:0b:17:4c:6f:3e:11:b1:b3:f6:3b:d6:8c:
         b7:34:e6:77:e4:cd:b6:72:72:40:ef:72:33:8c:59:83:3f:1e:
         7d:48:ad:15:c5:40:a1:1c:29:9b:68:b1:22:16:92:18:85:ed:
         a9:21:c7:3b:a8:c4:b6:fb:56:5f:73:c4:3a:08:26:f1:f3:b5:
         6e:86:39:4b
-----BEGIN CERTIFICATE-----
MIID1DCCArygAwIBAgIBATANBgkqhkiG9w0BAQUFADB7MRUwEwYKCZImiZPyLGQB
GRYFbG9jYWwxGDAWBgoJkiaJk/IsZAEZFghwaWNodWFuZzEUMBIGA1UECgwLSG9t
ZWxhYiBJbmMxGDAWBgNVBAsMD0hvbWVsYWIgUm9vdCBDQTEYMBYGA1UEAwwPSG9t
ZWxhYiBSb290IENBMB4XDTE4MDkxNjE2MTg1OFoXDTI4MDkxNTE2MTg1OFowezEV
MBMGCgmSJomT8ixkARkWBWxvY2FsMRgwFgYKCZImiZPyLGQBGRYIcGljaHVhbmcx
FDASBgNVBAoMC0hvbWVsYWIgSW5jMRgwFgYDVQQLDA9Ib21lbGFiIFJvb3QgQ0Ex
GDAWBgNVBAMMD0hvbWVsYWIgUm9vdCBDQTCCASIwDQYJKoZIhvcNAQEBBQADggEP
ADCCAQoCggEBAMnNM/yX0lFlY/q3eOFkYj+ChX4VOmvDPwmchg+L0hrc0Pheanbt
XKv0Z3wd+uQN1iUEBN98LiS0NvZhgPTg4+14VYRjJMK8F22eNQFm1lpFDF6+IAQO
1ICKd9yD2dmNO57w956D2bGiSvMXstKx31y/dXqE9sijJf9STVayAQib6qaPJ2ou
El1R3/O49aLO3RKaNuiCwlT17ezHNLi2Ul6zvGaZwQcGXkgSlQHsZGFvFlEle2gD
RkQQrWJjBtin2f2hm06YFuHci6GNrBivLbNEuUK/uiBDFA1pN+pK35Vag14mp9Q4
7fkKPra9tm4neD3HSPb8+TOg+Gk/MIqgJQECAwEAAaNjMGEwDgYDVR0PAQH/BAQD
AgEGMA8GA1UdEwEB/wQFMAMBAf8wHQYDVR0OBBYEFKOAgl0iCZmjHaloc/at3L5Z
rnS0MB8GA1UdIwQYMBaAFKOAgl0iCZmjHaloc/at3L5ZrnS0MA0GCSqGSIb3DQEB
BQUAA4IBAQC7A9RaO6yiuosnGwjreIMpBJuZpMP+QY0YKKWvwZUk+SSgJc9fUw6Z
uFKVPpUbnqUcWmxSZqQ9Tp4zMCwZLROAqDtxac1RG9FXIDmyfqbEzcHgTmWTI4fn
kqPzaeBDuy8BGiM4m1VhyJQxRSL8qHxw1yYy5s3hUDjFbgaoz6DrW2wuxraM04s/
lRezo1KMCj6clltj60ATog/3rnAHFT1aLvWi8lMN7gHEdoJ45yvx/Lg4R5+b/AaN
8X0LF0xvPhGxs/Y71oy3NOZ35M22cnJA73IzjFmDPx59SK0VxUChHCmbaLEiFpIY
he2pIcc7qMS2+1Zfc8Q6CCbx87VuhjlL
-----END CERTIFICATE-----
