Certificate:
    Data:
        Version: 3 (0x2)
        Serial Number: 2 (0x2)
    Signature Algorithm: sha1WithRSAEncryption
        Issuer: DC=local, DC=pichuang, O=Homelab Inc, OU=Homelab Root CA, CN=Homelab Root CA
        Validity
            Not Before: Sep 16 16:28:05 2018 GMT
            Not After : Sep 15 16:28:05 2028 GMT
        Subject: DC=local, DC=pichuang, O=Homelab Inc, OU=Homelab Signing CA, CN=Homelab Signing CA
        Subject Public Key Info:
            Public Key Algorithm: rsaEncryption
                Public-Key: (2048 bit)
                Modulus:
                    00:be:96:b0:a9:1f:5f:1c:da:18:9a:72:38:96:b3:
                    23:d1:5b:82:b2:3b:3d:c8:fb:50:56:52:2e:ec:e6:
                    09:9f:65:5f:c1:b4:af:0a:07:55:c4:77:51:14:30:
                    5d:ce:49:13:80:d8:b8:5e:7b:58:0c:36:cf:71:d5:
                    e7:14:a1:55:c7:21:86:74:e6:56:f9:df:22:3d:d7:
                    b5:15:53:3e:0f:d2:48:fe:f1:a1:2e:5c:0a:26:55:
                    e7:be:ef:8a:e3:c0:7a:3a:19:e2:55:4d:10:28:ee:
                    8d:6f:1f:c2:f0:a4:52:d0:6d:9c:ab:41:e5:2e:e5:
                    cf:69:10:4d:b9:d1:92:6e:d9:81:18:a1:a9:ba:f7:
                    e6:fa:18:25:b5:a1:bc:32:6f:3d:4b:08:95:94:c1:
                    62:0b:6e:83:b4:8a:1b:b4:4a:38:21:a5:c8:11:e9:
                    7d:b7:78:8f:c1:0e:cf:80:af:e0:01:36:4b:92:51:
                    3d:6b:59:21:f3:44:51:14:70:03:ae:ca:5c:17:27:
                    43:d1:a3:03:4c:0c:ff:8a:b4:d1:4e:f3:ab:ed:cf:
                    5d:92:25:62:35:da:e5:07:d2:35:e3:03:a5:d5:13:
                    da:2f:22:c5:20:d3:6f:8f:a9:7a:51:5e:0f:49:1e:
                    33:f8:d2:e6:e1:9d:88:4c:b7:22:08:db:f3:0b:a8:
                    dd:0f
                Exponent: 65537 (0x10001)
        X509v3 extensions:
            X509v3 Key Usage: critical
                Certificate Sign, CRL Sign
            X509v3 Basic Constraints: critical
                CA:TRUE, pathlen:0
            X509v3 Subject Key Identifier: 
                2F:D7:B8:E2:76:F9:0C:1B:AF:EC:D5:0A:34:4B:CC:C5:63:33:4B:D6
            X509v3 Authority Key Identifier: 
                keyid:A3:80:82:5D:22:09:99:A3:1D:A9:68:73:F6:AD:DC:BE:59:AE:74:B4

    Signature Algorithm: sha1WithRSAEncryption
         c8:81:08:bb:68:a1:09:5b:90:b4:24:9c:18:e1:62:e6:41:37:
         ca:46:68:cc:83:0a:cc:d0:08:bb:e1:a9:f0:f6:42:bf:ff:de:
         a4:11:c9:7c:cf:bf:85:35:8b:62:88:7f:04:4e:07:f6:0f:38:
         7f:bc:f6:f2:67:1f:9a:e9:5c:4f:6a:03:9f:8a:de:e9:a8:0d:
         f8:be:53:df:49:ce:7a:b7:83:79:eb:57:b8:44:f0:1a:65:26:
         07:68:c6:29:08:d9:1d:48:a8:c1:73:9f:e6:df:6a:a7:f9:f2:
         f8:1b:65:27:00:b5:c1:bf:4b:e2:aa:ff:08:eb:65:ba:7f:af:
         9f:3a:d8:70:c0:bc:00:80:5a:87:a9:37:3d:69:67:7c:e0:4e:
         05:1a:f1:91:10:f5:69:56:67:4a:24:d8:d4:1c:95:c8:d2:cc:
         22:34:d1:0d:67:43:8b:8f:59:a0:4c:87:e5:a6:33:ff:54:7f:
         47:22:9d:6e:56:09:90:cf:4a:b4:b4:d6:77:3a:8a:4c:7c:b4:
         20:94:e8:e8:65:22:84:97:a5:01:04:36:d7:68:76:29:0e:ec:
         ee:b7:17:1b:f5:0b:fc:72:75:e5:ef:33:5c:be:ff:79:1e:22:
         b7:c8:22:fb:aa:aa:1f:d3:c3:5c:74:a2:7d:22:5b:d7:56:41:
         5a:3e:7f:fe
-----BEGIN CERTIFICATE-----
MIID3jCCAsagAwIBAgIBAjANBgkqhkiG9w0BAQUFADB7MRUwEwYKCZImiZPyLGQB
GRYFbG9jYWwxGDAWBgoJkiaJk/IsZAEZFghwaWNodWFuZzEUMBIGA1UECgwLSG9t
ZWxhYiBJbmMxGDAWBgNVBAsMD0hvbWVsYWIgUm9vdCBDQTEYMBYGA1UEAwwPSG9t
ZWxhYiBSb290IENBMB4XDTE4MDkxNjE2MjgwNVoXDTI4MDkxNTE2MjgwNVowgYEx
FTATBgoJkiaJk/IsZAEZFgVsb2NhbDEYMBYGCgmSJomT8ixkARkWCHBpY2h1YW5n
MRQwEgYDVQQKDAtIb21lbGFiIEluYzEbMBkGA1UECwwSSG9tZWxhYiBTaWduaW5n
IENBMRswGQYDVQQDDBJIb21lbGFiIFNpZ25pbmcgQ0EwggEiMA0GCSqGSIb3DQEB
AQUAA4IBDwAwggEKAoIBAQC+lrCpH18c2hiacjiWsyPRW4KyOz3I+1BWUi7s5gmf
ZV/BtK8KB1XEd1EUMF3OSROA2Lhee1gMNs9x1ecUoVXHIYZ05lb53yI917UVUz4P
0kj+8aEuXAomVee+74rjwHo6GeJVTRAo7o1vH8LwpFLQbZyrQeUu5c9pEE250ZJu
2YEYoam69+b6GCW1obwybz1LCJWUwWILboO0ihu0SjghpcgR6X23eI/BDs+Ar+AB
NkuSUT1rWSHzRFEUcAOuylwXJ0PRowNMDP+KtNFO86vtz12SJWI12uUH0jXjA6XV
E9ovIsUg02+PqXpRXg9JHjP40ubhnYhMtyII2/MLqN0PAgMBAAGjZjBkMA4GA1Ud
DwEB/wQEAwIBBjASBgNVHRMBAf8ECDAGAQH/AgEAMB0GA1UdDgQWBBQv17jidvkM
G6/s1Qo0S8zFYzNL1jAfBgNVHSMEGDAWgBSjgIJdIgmZox2paHP2rdy+Wa50tDAN
BgkqhkiG9w0BAQUFAAOCAQEAyIEIu2ihCVuQtCScGOFi5kE3ykZozIMKzNAIu+Gp
8PZCv//epBHJfM+/hTWLYoh/BE4H9g84f7z28mcfmulcT2oDn4re6agN+L5T30nO
ereDeetXuETwGmUmB2jGKQjZHUiowXOf5t9qp/ny+BtlJwC1wb9L4qr/COtlun+v
nzrYcMC8AIBah6k3PWlnfOBOBRrxkRD1aVZnSiTY1ByVyNLMIjTRDWdDi49ZoEyH
5aYz/1R/RyKdblYJkM9KtLTWdzqKTHy0IJTo6GUihJelAQQ212h2KQ7s7rcXG/UL
/HJ15e8zXL7/eR4it8gi+6qqH9PDXHSifSJb11ZBWj5//g==
-----END CERTIFICATE-----
